target datalayout = "e-m:e-p270:32:32-p271:32:32-p272:64:64-i64:64-i128:128-f80:128-n8:16:32:64-S128"
target triple = "x86_64-pc-linux-gnu"

%"struct.smt::almost_cg_table::cg_hash" = type { ptr, ptr }
%"struct.smt::almost_cg_table::cg_eq" = type { ptr, ptr }
%"class.smt::almost_cg_table" = type { %class.region, ptr, ptr, %class.map }
%class.region = type { ptr, ptr, ptr, ptr, ptr }
%class.map = type { %class.table2map }
%class.table2map = type { %class.core_hashtable }
%class.core_hashtable = type <{ %"struct.table2map<default_map_entry<smt::enode *, list<smt::enode *> *>, smt::almost_cg_table::cg_hash, smt::almost_cg_table::cg_eq>::entry_hash_proc", %"struct.table2map<default_map_entry<smt::enode *, list<smt::enode *> *>, smt::almost_cg_table::cg_hash, smt::almost_cg_table::cg_eq>::entry_eq_proc", ptr, i32, i32, i32, [4 x i8] }>
%"struct.table2map<default_map_entry<smt::enode *, list<smt::enode *> *>, smt::almost_cg_table::cg_hash, smt::almost_cg_table::cg_eq>::entry_hash_proc" = type { %"struct.smt::almost_cg_table::cg_hash" }
%"struct.table2map<default_map_entry<smt::enode *, list<smt::enode *> *>, smt::almost_cg_table::cg_hash, smt::almost_cg_table::cg_eq>::entry_eq_proc" = type { %"struct.smt::almost_cg_table::cg_eq" }
%struct._key_data = type { ptr, ptr }
%class.default_hash_entry = type { i32, i32, %struct._key_data }
%class.default_map_entry = type { %class.default_hash_entry }

; Function Attrs: inlinehint mustprogress nounwind uwtable
define linkonce_odr hidden void @_ZN18default_hash_entryI9_key_dataIPN3smt5enodeEP4listIS3_EEEC2Ev(ptr noundef nonnull align 8 dereferenceable(24) %0) unnamed_addr #8 comdat align 2 {
  %2 = alloca ptr, align 8
  store ptr %0, ptr %2, align 8, !tbaa !93
  %3 = load ptr, ptr %2, align 8
  %4 = getelementptr inbounds nuw %class.default_hash_entry, ptr %3, i32 0, i32 0
  store i32 0, ptr %4, align 8, !tbaa !114
  %5 = getelementptr inbounds nuw %class.default_hash_entry, ptr %3, i32 0, i32 1
  store i32 0, ptr %5, align 4, !tbaa !117
  ret void
}

; Function Attrs: mustprogress nounwind uwtable
define linkonce_odr hidden void @_ZNSt12_Destroy_auxILb1EE9__destroyIP17default_map_entryIPN3smt5enodeEP4listIS5_EEEEvT_SB_(ptr noundef %0, ptr noundef %1) #4 comdat align 2 {
  %3 = alloca ptr, align 8
  %4 = alloca ptr, align 8
  store ptr %0, ptr %3, align 8, !tbaa !77
  store ptr %1, ptr %4, align 8, !tbaa !77
  ret void
}

; Function Attrs: inlinehint mustprogress nounwind uwtable
define linkonce_odr hidden void @_ZN17default_map_entryIPN3smt5enodeEP4listIS2_EEC2Ev(ptr noundef nonnull align 8 dereferenceable(24) %0) unnamed_addr #8 comdat align 2 {
  %2 = alloca ptr, align 8
  store ptr %0, ptr %2, align 8, !tbaa !77
  %3 = load ptr, ptr %2, align 8
  call void @_ZN18default_hash_entryI9_key_dataIPN3smt5enodeEP4listIS3_EEEC2Ev(ptr noundef nonnull align 8 dereferenceable(24) %3) #3
  ret void
}

; Function Attrs: noinline noreturn nounwind uwtable
define linkonce_odr hidden void @__clang_call_terminate(ptr noundef %0) #10 comdat {
  %2 = call ptr @__cxa_begin_catch(ptr %0) #3
  call void @_ZSt9terminatev() #13
  unreachable
}

; Function Attrs: inlinehint mustprogress uwtable
define linkonce_odr hidden void @_ZSt8_DestroyIP17default_map_entryIPN3smt5enodeEP4listIS3_EEEvT_S9_(ptr noundef %0, ptr noundef %1) #7 comdat {
  %3 = alloca ptr, align 8
  %4 = alloca ptr, align 8
  store ptr %0, ptr %3, align 8, !tbaa !77
  store ptr %1, ptr %4, align 8, !tbaa !77
  %5 = load ptr, ptr %3, align 8, !tbaa !77
  %6 = load ptr, ptr %4, align 8, !tbaa !77
  call void @_ZNSt12_Destroy_auxILb1EE9__destroyIP17default_map_entryIPN3smt5enodeEP4listIS5_EEEEvT_SB_(ptr noundef %5, ptr noundef %6)
  ret void
}

; Function Attrs: inlinehint mustprogress nounwind uwtable
define linkonce_odr hidden void @_ZSt18_Construct_novalueI17default_map_entryIPN3smt5enodeEP4listIS3_EEEvPT_(ptr noundef %0) #8 comdat {
  %2 = alloca ptr, align 8
  store ptr %0, ptr %2, align 8, !tbaa !77
  %3 = load ptr, ptr %2, align 8, !tbaa !77
  call void @_ZN17default_map_entryIPN3smt5enodeEP4listIS2_EEC2Ev(ptr noundef nonnull align 8 dereferenceable(24) %3) #3
  ret void
}

; Function Attrs: mustprogress uwtable
define linkonce_odr hidden noundef ptr @_ZNSt35__uninitialized_default_novalue_n_1ILb0EE26__uninit_default_novalue_nIP17default_map_entryIPN3smt5enodeEP4listIS5_EEjEET_SB_T0_(ptr noundef %0, i32 noundef %1) #6 comdat align 2 personality ptr @__gxx_personality_v0 {
  %3 = alloca ptr, align 8
  %4 = alloca i32, align 4
  %5 = alloca ptr, align 8
  %6 = alloca ptr, align 8
  %7 = alloca i32, align 4
  store ptr %0, ptr %3, align 8, !tbaa !77
  store i32 %1, ptr %4, align 4, !tbaa !8
  call void @llvm.lifetime.start.p0(i64 8, ptr %5) #3
  %8 = load ptr, ptr %3, align 8, !tbaa !77
  store ptr %8, ptr %5, align 8, !tbaa !77
  br label %9

9:                                                ; preds = %15, %2
  %10 = load i32, ptr %4, align 4, !tbaa !8
  %11 = icmp ugt i32 %10, 0
  br i1 %11, label %12, label %30

12:                                               ; preds = %9
  %13 = load ptr, ptr %5, align 8, !tbaa !77
  invoke void @_ZSt18_Construct_novalueI17default_map_entryIPN3smt5enodeEP4listIS3_EEEvPT_(ptr noundef %13)
          to label %14 unwind label %20

14:                                               ; preds = %12
  br label %15

15:                                               ; preds = %14
  %16 = load i32, ptr %4, align 4, !tbaa !8
  %17 = add i32 %16, -1
  store i32 %17, ptr %4, align 4, !tbaa !8
  %18 = load ptr, ptr %5, align 8, !tbaa !77
  %19 = getelementptr inbounds nuw %class.default_map_entry, ptr %18, i32 1
  store ptr %19, ptr %5, align 8, !tbaa !77
  br label %9, !llvm.loop !113

20:                                               ; preds = %12
  %21 = landingpad { ptr, i32 }
          catch ptr null
  %22 = extractvalue { ptr, i32 } %21, 0
  store ptr %22, ptr %6, align 8
  %23 = extractvalue { ptr, i32 } %21, 1
  store i32 %23, ptr %7, align 4
  br label %24

24:                                               ; preds = %20
  %25 = load ptr, ptr %6, align 8
  %26 = call ptr @__cxa_begin_catch(ptr %25) #3
  %27 = load ptr, ptr %3, align 8, !tbaa !77
  %28 = load ptr, ptr %5, align 8, !tbaa !77
  invoke void @_ZSt8_DestroyIP17default_map_entryIPN3smt5enodeEP4listIS3_EEEvT_S9_(ptr noundef %27, ptr noundef %28)
          to label %29 unwind label %32

29:                                               ; preds = %24
  invoke void @__cxa_rethrow() #12
          to label %46 unwind label %32

30:                                               ; preds = %9
  %31 = load ptr, ptr %5, align 8, !tbaa !77
  call void @llvm.lifetime.end.p0(i64 8, ptr %5) #3
  ret ptr %31

32:                                               ; preds = %29, %24
  %33 = landingpad { ptr, i32 }
          cleanup
  %34 = extractvalue { ptr, i32 } %33, 0
  store ptr %34, ptr %6, align 8
  %35 = extractvalue { ptr, i32 } %33, 1
  store i32 %35, ptr %7, align 4
  invoke void @__cxa_end_catch()
          to label %36 unwind label %43

36:                                               ; preds = %32
  call void @llvm.lifetime.end.p0(i64 8, ptr %5) #3
  br label %38

37:                                               ; No predecessors!
  unreachable

38:                                               ; preds = %36
  %39 = load ptr, ptr %6, align 8
  %40 = load i32, ptr %7, align 4
  %41 = insertvalue { ptr, i32 } poison, ptr %39, 0
  %42 = insertvalue { ptr, i32 } %41, i32 %40, 1
  resume { ptr, i32 } %42

43:                                               ; preds = %32
  %44 = landingpad { ptr, i32 }
          catch ptr null
  %45 = extractvalue { ptr, i32 } %44, 0
  call void @__clang_call_terminate(ptr %45) #13
  unreachable

46:                                               ; preds = %29
  unreachable
}

; Function Attrs: inlinehint mustprogress uwtable
define linkonce_odr hidden noundef ptr @_ZSt33__uninitialized_default_novalue_nIP17default_map_entryIPN3smt5enodeEP4listIS3_EEjET_S9_T0_(ptr noundef %0, i32 noundef %1) #7 comdat {
  %3 = alloca ptr, align 8
  %4 = alloca i32, align 4
  store ptr %0, ptr %3, align 8, !tbaa !77
  store i32 %1, ptr %4, align 4, !tbaa !8
  %5 = load ptr, ptr %3, align 8, !tbaa !77
  %6 = load i32, ptr %4, align 4, !tbaa !8
  %7 = call noundef ptr @_ZNSt35__uninitialized_default_novalue_n_1ILb0EE26__uninit_default_novalue_nIP17default_map_entryIPN3smt5enodeEP4listIS5_EEjEET_SB_T0_(ptr noundef %5, i32 noundef %6)
  ret ptr %7
}

; Function Attrs: inlinehint mustprogress uwtable
define linkonce_odr hidden noundef ptr @_ZSt33uninitialized_default_construct_nIP17default_map_entryIPN3smt5enodeEP4listIS3_EEjET_S9_T0_(ptr noundef %0, i32 noundef %1) #7 comdat {
  %3 = alloca ptr, align 8
  %4 = alloca i32, align 4
  store ptr %0, ptr %3, align 8, !tbaa !77
  store i32 %1, ptr %4, align 4, !tbaa !8
  %5 = load ptr, ptr %3, align 8, !tbaa !77
  %6 = load i32, ptr %4, align 4, !tbaa !8
  %7 = call noundef ptr @_ZSt33__uninitialized_default_novalue_nIP17default_map_entryIPN3smt5enodeEP4listIS3_EEjET_S9_T0_(ptr noundef %5, i32 noundef %6)
  ret ptr %7
}

; Function Attrs: mustprogress uwtable
define linkonce_odr hidden noalias noundef ptr @_Z10alloc_vectI17default_map_entryIPN3smt5enodeEP4listIS3_EEEPT_j(i32 noundef %0) #6 comdat {
  %2 = alloca i32, align 4
  %3 = alloca ptr, align 8
  store i32 %0, ptr %2, align 4, !tbaa !8
  call void @llvm.lifetime.start.p0(i64 8, ptr %3) #3
  %4 = load i32, ptr %2, align 4, !tbaa !8
  %5 = zext i32 %4 to i64
  %6 = mul i64 24, %5
  %7 = call noalias noundef ptr @_ZN6memory8allocateEm(i64 noundef %6)
  store ptr %7, ptr %3, align 8, !tbaa !77
  %8 = load ptr, ptr %3, align 8, !tbaa !77
  %9 = load i32, ptr %2, align 4, !tbaa !8
  %10 = call noundef ptr @_ZSt33uninitialized_default_construct_nIP17default_map_entryIPN3smt5enodeEP4listIS3_EEjET_S9_T0_(ptr noundef %8, i32 noundef %9)
  %11 = load ptr, ptr %3, align 8, !tbaa !77
  call void @llvm.lifetime.end.p0(i64 8, ptr %3) #3
  ret ptr %11
}

; Function Attrs: mustprogress uwtable
define linkonce_odr hidden noundef ptr @_ZN14core_hashtableI17default_map_entryIPN3smt5enodeEP4listIS3_EEN9table2mapIS7_NS1_15almost_cg_table7cg_hashENS9_5cg_eqEE15entry_hash_procENSC_13entry_eq_procEE11alloc_tableEj(ptr noundef nonnull align 8 dereferenceable(52) %0, i32 noundef %1) #6 comdat align 2 {
  %3 = alloca ptr, align 8
  %4 = alloca i32, align 4
  %5 = alloca ptr, align 8
  store ptr %0, ptr %3, align 8, !tbaa !107
  store i32 %1, ptr %4, align 4, !tbaa !8
  call void @llvm.lifetime.start.p0(i64 8, ptr %5) #3
  %6 = load i32, ptr %4, align 4, !tbaa !8
  %7 = call noalias noundef ptr @_Z10alloc_vectI17default_map_entryIPN3smt5enodeEP4listIS3_EEEPT_j(i32 noundef %6)
  store ptr %7, ptr %5, align 8, !tbaa !77
  %8 = load ptr, ptr %5, align 8, !tbaa !77
  call void @llvm.lifetime.end.p0(i64 8, ptr %5) #3
  ret ptr %8
}

; Function Attrs: mustprogress uwtable
define linkonce_odr hidden void @_ZN14core_hashtableI17default_map_entryIPN3smt5enodeEP4listIS3_EEN9table2mapIS7_NS1_15almost_cg_table7cg_hashENS9_5cg_eqEE15entry_hash_procENSC_13entry_eq_procEEC2EjRKSD_RKSE_(ptr noundef nonnull align 8 dereferenceable(52) %0, i32 noundef %1, ptr noundef nonnull align 8 dereferenceable(16) %2, ptr noundef nonnull align 8 dereferenceable(16) %3) unnamed_addr #6 comdat align 2 {
  %5 = alloca ptr, align 8
  %6 = alloca i32, align 4
  %7 = alloca ptr, align 8
  %8 = alloca ptr, align 8
  store ptr %0, ptr %5, align 8, !tbaa !107
  store i32 %1, ptr %6, align 4, !tbaa !8
  store ptr %2, ptr %7, align 8, !tbaa !102
  store ptr %3, ptr %8, align 8, !tbaa !105
  %9 = load ptr, ptr %5, align 8
  %10 = load ptr, ptr %7, align 8, !tbaa !102
  call void @llvm.memcpy.p0.p0.i64(ptr align 8 %9, ptr align 8 %10, i64 16, i1 false)
  %11 = getelementptr inbounds i8, ptr %9, i64 16
  %12 = load ptr, ptr %8, align 8, !tbaa !105
  call void @llvm.memcpy.p0.p0.i64(ptr align 8 %11, ptr align 8 %12, i64 16, i1 false)
  %13 = load i32, ptr %6, align 4, !tbaa !8
  %14 = call noundef ptr @_ZN14core_hashtableI17default_map_entryIPN3smt5enodeEP4listIS3_EEN9table2mapIS7_NS1_15almost_cg_table7cg_hashENS9_5cg_eqEE15entry_hash_procENSC_13entry_eq_procEE11alloc_tableEj(ptr noundef nonnull align 8 dereferenceable(52) %9, i32 noundef %13)
  %15 = getelementptr inbounds nuw %class.core_hashtable, ptr %9, i32 0, i32 2
  store ptr %14, ptr %15, align 8, !tbaa !109
  %16 = load i32, ptr %6, align 4, !tbaa !8
  %17 = getelementptr inbounds nuw %class.core_hashtable, ptr %9, i32 0, i32 3
  store i32 %16, ptr %17, align 8, !tbaa !110
  %18 = getelementptr inbounds nuw %class.core_hashtable, ptr %9, i32 0, i32 4
  store i32 0, ptr %18, align 4, !tbaa !111
  %19 = getelementptr inbounds nuw %class.core_hashtable, ptr %9, i32 0, i32 5
  store i32 0, ptr %19, align 8, !tbaa !112
  ret void
}

; Function Attrs: mustprogress nounwind uwtable
define linkonce_odr hidden void @_ZN9table2mapI17default_map_entryIPN3smt5enodeEP4listIS3_EENS1_15almost_cg_table7cg_hashENS8_5cg_eqEE13entry_eq_procC2ERKSA_(ptr noundef nonnull align 8 dereferenceable(16) %0, ptr noundef nonnull align 8 dereferenceable(16) %1) unnamed_addr #4 comdat align 2 {
  %3 = alloca ptr, align 8
  %4 = alloca ptr, align 8
  store ptr %0, ptr %3, align 8, !tbaa !105
  store ptr %1, ptr %4, align 8, !tbaa !44
  %5 = load ptr, ptr %3, align 8
  %6 = load ptr, ptr %4, align 8, !tbaa !44
  call void @llvm.memcpy.p0.p0.i64(ptr align 8 %5, ptr align 8 %6, i64 16, i1 false), !tbaa.struct !104
  ret void
}

; Function Attrs: mustprogress nounwind uwtable
define linkonce_odr hidden void @_ZN9table2mapI17default_map_entryIPN3smt5enodeEP4listIS3_EENS1_15almost_cg_table7cg_hashENS8_5cg_eqEE15entry_hash_procC2ERKS9_(ptr noundef nonnull align 8 dereferenceable(16) %0, ptr noundef nonnull align 8 dereferenceable(16) %1) unnamed_addr #4 comdat align 2 {
  %3 = alloca ptr, align 8
  %4 = alloca ptr, align 8
  store ptr %0, ptr %3, align 8, !tbaa !102
  store ptr %1, ptr %4, align 8, !tbaa !22
  %5 = load ptr, ptr %3, align 8
  %6 = load ptr, ptr %4, align 8, !tbaa !22
  call void @llvm.memcpy.p0.p0.i64(ptr align 8 %5, ptr align 8 %6, i64 16, i1 false), !tbaa.struct !104
  ret void
}

; Function Attrs: mustprogress uwtable
define linkonce_odr hidden void @_ZN9table2mapI17default_map_entryIPN3smt5enodeEP4listIS3_EENS1_15almost_cg_table7cg_hashENS8_5cg_eqEEC2ERKS9_RKSA_(ptr noundef nonnull align 8 dereferenceable(56) %0, ptr noundef nonnull align 8 dereferenceable(16) %1, ptr noundef nonnull align 8 dereferenceable(16) %2) unnamed_addr #6 comdat align 2 {
  %4 = alloca ptr, align 8
  %5 = alloca ptr, align 8
  %6 = alloca ptr, align 8
  %7 = alloca %"struct.table2map<default_map_entry<smt::enode *, list<smt::enode *> *>, smt::almost_cg_table::cg_hash, smt::almost_cg_table::cg_eq>::entry_hash_proc", align 8
  %8 = alloca %"struct.table2map<default_map_entry<smt::enode *, list<smt::enode *> *>, smt::almost_cg_table::cg_hash, smt::almost_cg_table::cg_eq>::entry_eq_proc", align 8
  store ptr %0, ptr %4, align 8, !tbaa !75
  store ptr %1, ptr %5, align 8, !tbaa !22
  store ptr %2, ptr %6, align 8, !tbaa !44
  %9 = load ptr, ptr %4, align 8
  %10 = getelementptr inbounds nuw %class.table2map, ptr %9, i32 0, i32 0
  call void @llvm.lifetime.start.p0(i64 16, ptr %7) #3
  %11 = load ptr, ptr %5, align 8, !tbaa !22
  call void @_ZN9table2mapI17default_map_entryIPN3smt5enodeEP4listIS3_EENS1_15almost_cg_table7cg_hashENS8_5cg_eqEE15entry_hash_procC2ERKS9_(ptr noundef nonnull align 8 dereferenceable(16) %7, ptr noundef nonnull align 8 dereferenceable(16) %11)
  call void @llvm.lifetime.start.p0(i64 16, ptr %8) #3
  %12 = load ptr, ptr %6, align 8, !tbaa !44
  call void @_ZN9table2mapI17default_map_entryIPN3smt5enodeEP4listIS3_EENS1_15almost_cg_table7cg_hashENS8_5cg_eqEE13entry_eq_procC2ERKSA_(ptr noundef nonnull align 8 dereferenceable(16) %8, ptr noundef nonnull align 8 dereferenceable(16) %12)
  call void @_ZN14core_hashtableI17default_map_entryIPN3smt5enodeEP4listIS3_EEN9table2mapIS7_NS1_15almost_cg_table7cg_hashENS9_5cg_eqEE15entry_hash_procENSC_13entry_eq_procEEC2EjRKSD_RKSE_(ptr noundef nonnull align 8 dereferenceable(52) %10, i32 noundef 8, ptr noundef nonnull align 8 dereferenceable(16) %7, ptr noundef nonnull align 8 dereferenceable(16) %8)
  call void @llvm.lifetime.end.p0(i64 16, ptr %8) #3
  call void @llvm.lifetime.end.p0(i64 16, ptr %7) #3
  ret void
}

; Function Attrs: mustprogress uwtable
define linkonce_odr hidden void @_ZN3mapIPN3smt5enodeEP4listIS2_ENS0_15almost_cg_table7cg_hashENS6_5cg_eqEEC2ERKS7_RKS8_(ptr noundef nonnull align 8 dereferenceable(56) %0, ptr noundef nonnull align 8 dereferenceable(16) %1, ptr noundef nonnull align 8 dereferenceable(16) %2) unnamed_addr #6 comdat align 2 {
  %4 = alloca ptr, align 8
  %5 = alloca ptr, align 8
  %6 = alloca ptr, align 8
  store ptr %0, ptr %4, align 8, !tbaa !73
  store ptr %1, ptr %5, align 8, !tbaa !22
  store ptr %2, ptr %6, align 8, !tbaa !44
  %7 = load ptr, ptr %4, align 8
  %8 = load ptr, ptr %5, align 8, !tbaa !22
  %9 = load ptr, ptr %6, align 8, !tbaa !44
  call void @_ZN9table2mapI17default_map_entryIPN3smt5enodeEP4listIS3_EENS1_15almost_cg_table7cg_hashENS8_5cg_eqEEC2ERKS9_RKSA_(ptr noundef nonnull align 8 dereferenceable(56) %7, ptr noundef nonnull align 8 dereferenceable(16) %8, ptr noundef nonnull align 8 dereferenceable(16) %9)
  ret void
}

; Function Attrs: mustprogress nounwind uwtable
define linkonce_odr hidden void @_ZN3smt15almost_cg_table5cg_eqC2ERPNS_5enodeES4_(ptr noundef nonnull align 8 dereferenceable(16) %0, ptr noundef nonnull align 8 dereferenceable(8) %1, ptr noundef nonnull align 8 dereferenceable(8) %2) unnamed_addr #4 comdat align 2 {
  %4 = alloca ptr, align 8
  %5 = alloca ptr, align 8
  %6 = alloca ptr, align 8
  store ptr %0, ptr %4, align 8, !tbaa !44
  store ptr %1, ptr %5, align 8, !tbaa !72
  store ptr %2, ptr %6, align 8, !tbaa !72
  %7 = load ptr, ptr %4, align 8
  %8 = getelementptr inbounds nuw %"struct.smt::almost_cg_table::cg_eq", ptr %7, i32 0, i32 0
  %9 = load ptr, ptr %5, align 8, !tbaa !72
  store ptr %9, ptr %8, align 8, !tbaa !72
  %10 = getelementptr inbounds nuw %"struct.smt::almost_cg_table::cg_eq", ptr %7, i32 0, i32 1
  %11 = load ptr, ptr %6, align 8, !tbaa !72
  store ptr %11, ptr %10, align 8, !tbaa !72
  ret void
}

; Function Attrs: mustprogress nounwind uwtable
define linkonce_odr hidden void @_ZN3smt15almost_cg_table7cg_hashC2ERPNS_5enodeES4_(ptr noundef nonnull align 8 dereferenceable(16) %0, ptr noundef nonnull align 8 dereferenceable(8) %1, ptr noundef nonnull align 8 dereferenceable(8) %2) unnamed_addr #4 comdat align 2 {
  %4 = alloca ptr, align 8
  %5 = alloca ptr, align 8
  %6 = alloca ptr, align 8
  store ptr %0, ptr %4, align 8, !tbaa !22
  store ptr %1, ptr %5, align 8, !tbaa !72
  store ptr %2, ptr %6, align 8, !tbaa !72
  %7 = load ptr, ptr %4, align 8
  %8 = getelementptr inbounds nuw %"struct.smt::almost_cg_table::cg_hash", ptr %7, i32 0, i32 0
  %9 = load ptr, ptr %5, align 8, !tbaa !72
  store ptr %9, ptr %8, align 8, !tbaa !72
  %10 = getelementptr inbounds nuw %"struct.smt::almost_cg_table::cg_hash", ptr %7, i32 0, i32 1
  %11 = load ptr, ptr %6, align 8, !tbaa !72
  store ptr %11, ptr %10, align 8, !tbaa !72
  ret void
}

; Function Attrs: mustprogress uwtable
define hidden void @_ZN3smt15almost_cg_tableC2EPNS_5enodeES2_(ptr noundef nonnull align 8 dereferenceable(112) %0, ptr noundef %1, ptr noundef %2) unnamed_addr #6 align 2 personality ptr @__gxx_personality_v0 {
  %4 = alloca ptr, align 8
  %5 = alloca ptr, align 8
  %6 = alloca ptr, align 8
  %7 = alloca %"struct.smt::almost_cg_table::cg_hash", align 8
  %8 = alloca ptr, align 8
  %9 = alloca i32, align 4
  %10 = alloca %"struct.smt::almost_cg_table::cg_eq", align 8
  store ptr %0, ptr %4, align 8, !tbaa !58
  store ptr %1, ptr %5, align 8, !tbaa !24
  store ptr %2, ptr %6, align 8, !tbaa !24
  %11 = load ptr, ptr %4, align 8
  %12 = getelementptr inbounds nuw %"class.smt::almost_cg_table", ptr %11, i32 0, i32 0
  call void @_ZN6regionC1Ev(ptr noundef nonnull align 8 dereferenceable(40) %12)
  %13 = getelementptr inbounds nuw %"class.smt::almost_cg_table", ptr %11, i32 0, i32 1
  %14 = load ptr, ptr %5, align 8, !tbaa !24
  store ptr %14, ptr %13, align 8, !tbaa !60
  %15 = getelementptr inbounds nuw %"class.smt::almost_cg_table", ptr %11, i32 0, i32 2
  %16 = load ptr, ptr %6, align 8, !tbaa !24
  store ptr %16, ptr %15, align 8, !tbaa !71
  %17 = getelementptr inbounds nuw %"class.smt::almost_cg_table", ptr %11, i32 0, i32 3
  call void @llvm.lifetime.start.p0(i64 16, ptr %7) #3
  %18 = getelementptr inbounds nuw %"class.smt::almost_cg_table", ptr %11, i32 0, i32 1
  %19 = getelementptr inbounds nuw %"class.smt::almost_cg_table", ptr %11, i32 0, i32 2
  invoke void @_ZN3smt15almost_cg_table7cg_hashC2ERPNS_5enodeES4_(ptr noundef nonnull align 8 dereferenceable(16) %7, ptr noundef nonnull align 8 dereferenceable(8) %18, ptr noundef nonnull align 8 dereferenceable(8) %19)
          to label %20 unwind label %25

20:                                               ; preds = %3
  call void @llvm.lifetime.start.p0(i64 16, ptr %10) #3
  %21 = getelementptr inbounds nuw %"class.smt::almost_cg_table", ptr %11, i32 0, i32 1
  %22 = getelementptr inbounds nuw %"class.smt::almost_cg_table", ptr %11, i32 0, i32 2
  invoke void @_ZN3smt15almost_cg_table5cg_eqC2ERPNS_5enodeES4_(ptr noundef nonnull align 8 dereferenceable(16) %10, ptr noundef nonnull align 8 dereferenceable(8) %21, ptr noundef nonnull align 8 dereferenceable(8) %22)
          to label %23 unwind label %29

23:                                               ; preds = %20
  invoke void @_ZN3mapIPN3smt5enodeEP4listIS2_ENS0_15almost_cg_table7cg_hashENS6_5cg_eqEEC2ERKS7_RKS8_(ptr noundef nonnull align 8 dereferenceable(56) %17, ptr noundef nonnull align 8 dereferenceable(16) %7, ptr noundef nonnull align 8 dereferenceable(16) %10)
          to label %24 unwind label %29

24:                                               ; preds = %23
  call void @llvm.lifetime.end.p0(i64 16, ptr %10) #3
  call void @llvm.lifetime.end.p0(i64 16, ptr %7) #3
  ret void

25:                                               ; preds = %3
  %26 = landingpad { ptr, i32 }
          cleanup
  %27 = extractvalue { ptr, i32 } %26, 0
  store ptr %27, ptr %8, align 8
  %28 = extractvalue { ptr, i32 } %26, 1
  store i32 %28, ptr %9, align 4
  br label %33

29:                                               ; preds = %23, %20
  %30 = landingpad { ptr, i32 }
          cleanup
  %31 = extractvalue { ptr, i32 } %30, 0
  store ptr %31, ptr %8, align 8
  %32 = extractvalue { ptr, i32 } %30, 1
  store i32 %32, ptr %9, align 4
  call void @llvm.lifetime.end.p0(i64 16, ptr %10) #3
  br label %33

33:                                               ; preds = %29, %25
  call void @llvm.lifetime.end.p0(i64 16, ptr %7) #3
  call void @_ZN6regionD1Ev(ptr noundef nonnull align 8 dereferenceable(40) %12) #3
  br label %34

34:                                               ; preds = %33
  %35 = load ptr, ptr %8, align 8
  %36 = load i32, ptr %9, align 4
  %37 = insertvalue { ptr, i32 } poison, ptr %35, 0
  %38 = insertvalue { ptr, i32 } %37, i32 %36, 1
  resume { ptr, i32 } %38
}