; Function Attrs: mustprogress uwtable
define hidden void @_ZN3smt15almost_cg_tableC2EPNS_5enodeES2_(ptr noundef nonnull align 8 dereferenceable(112) %0, ptr noundef %1, ptr noundef %2) unnamed_addr #5 align 2 personality ptr @__gxx_personality_v0 {
  tail call void @_ZN6regionC1Ev(ptr noundef nonnull align 8 dereferenceable(40) %0)
  %4 = getelementptr inbounds nuw i8, ptr %0, i64 40
  store ptr %1, ptr %4, align 8, !tbaa !40
  %5 = getelementptr inbounds nuw i8, ptr %0, i64 48
  store ptr %2, ptr %5, align 8, !tbaa !52
  %6 = getelementptr inbounds nuw i8, ptr %0, i64 56
  store ptr %4, ptr %6, align 8
  %.sroa.55.0..sroa_idx = getelementptr inbounds nuw i8, ptr %0, i64 64
  store ptr %5, ptr %.sroa.55.0..sroa_idx, align 8
  %7 = getelementptr inbounds nuw i8, ptr %0, i64 72
  store ptr %4, ptr %7, align 8
  %.sroa.0.i.i.sroa.4.0..sroa_idx = getelementptr inbounds nuw i8, ptr %0, i64 80
  store ptr %5, ptr %.sroa.0.i.i.sroa.4.0..sroa_idx, align 8
  %8 = invoke noalias noundef ptr @_ZN6memory8allocateEm(i64 noundef 192)
          to label %.lr.ph.i.i.i.i.i.i.i.i unwind label %17

.lr.ph.i.i.i.i.i.i.i.i:                           ; preds = %3, %.lr.ph.i.i.i.i.i.i.i.i
  %.08.i.i.i.i.i.i.i.i = phi ptr [ %11, %.lr.ph.i.i.i.i.i.i.i.i ], [ %8, %3 ]
  %.057.i.i.i.i.i.i.i.i = phi i32 [ %10, %.lr.ph.i.i.i.i.i.i.i.i ], [ 8, %3 ]
  store i32 0, ptr %.08.i.i.i.i.i.i.i.i, align 8, !tbaa !53
  %9 = getelementptr inbounds nuw i8, ptr %.08.i.i.i.i.i.i.i.i, i64 4
  store i32 0, ptr %9, align 4, !tbaa !58
  %10 = add nsw i32 %.057.i.i.i.i.i.i.i.i, -1
  %11 = getelementptr inbounds nuw i8, ptr %.08.i.i.i.i.i.i.i.i, i64 24
  %.not.i.i.i.i.i.i.i.i = icmp eq i32 %10, 0
  br i1 %.not.i.i.i.i.i.i.i.i, label %12, label %.lr.ph.i.i.i.i.i.i.i.i, !llvm.loop !59

12:                                               ; preds = %.lr.ph.i.i.i.i.i.i.i.i
  %13 = getelementptr inbounds nuw i8, ptr %0, i64 88
  store ptr %8, ptr %13, align 8, !tbaa !60
  %14 = getelementptr inbounds nuw i8, ptr %0, i64 96
  store i32 8, ptr %14, align 8, !tbaa !61
  %15 = getelementptr inbounds nuw i8, ptr %0, i64 100
  store i32 0, ptr %15, align 4, !tbaa !62
  %16 = getelementptr inbounds nuw i8, ptr %0, i64 104
  store i32 0, ptr %16, align 8, !tbaa !63
  ret void

17:                                               ; preds = %3
  %18 = landingpad { ptr, i32 }
          cleanup
  tail call void @_ZN6regionD1Ev(ptr noundef nonnull align 8 dereferenceable(40) %0) #8
  resume { ptr, i32 } %18
}